#include <math.h>
#include <stdio.h>
#include <stdlib.h>
#include <string.h>

int m,n,a[100],b[100];
void f()
{
	scanf("%d %d",&m,&n);
	int i,j;
	for(i=0;i<=m-1;i++)
	{
		scanf("%d",&a[i]);
	}
	for(j=0;j<=n-1;j++)
	{
		scanf("%d",&b[j]);
	}
}

int g(int a[],int l)
{
	int i,j,t;
	for(j=0;j<l;j++)
	{
		for(i=0;i<l-j-1;i++)
		{
			if(a[i]>a[i+1])
			{
				t=a[i];
				a[i]=a[i+1];
				a[i+1]=t;
			}
		}
	}
	return a[0];	
	
}
void p(int a[],int b[])
{
	int i,j;
	for(i=0;i<=m-1;i++)
	printf("%d ",a[i]);
	for(j=0;j<=n-2;j++)
		printf("%d ",b[j]);
	printf("%d",b[n-1]);
	

}
void main()
{  
	f();
g(a,m);
g(b,n);
p(a,b);
}
